target datalayout = "e-m:e-p270:32:32-p271:32:32-p272:64:64-i64:64-i128:128-f80:128-n8:16:32:64-S128"
target triple = "x86_64-pc-linux-gnu"

; Function Attrs: inlinehint mustprogress nounwind uwtable
define internal void @_ZL9clear_matPA3_f(ptr noundef %0) #4 {
  %2 = alloca ptr, align 8
  %3 = alloca float, align 4
  store ptr %0, ptr %2, align 8, !tbaa !48
  call void @llvm.lifetime.start.p0(i64 4, ptr %3) #5
  store float 0.000000e+00, ptr %3, align 4, !tbaa !50
  %4 = load ptr, ptr %2, align 8, !tbaa !48
  %5 = getelementptr inbounds [3 x float], ptr %4, i64 0
  %6 = getelementptr inbounds [3 x float], ptr %5, i64 0, i64 2
  store float 0.000000e+00, ptr %6, align 4, !tbaa !50
  %7 = load ptr, ptr %2, align 8, !tbaa !48
  %8 = getelementptr inbounds [3 x float], ptr %7, i64 0
  %9 = getelementptr inbounds [3 x float], ptr %8, i64 0, i64 1
  store float 0.000000e+00, ptr %9, align 4, !tbaa !50
  %10 = load ptr, ptr %2, align 8, !tbaa !48
  %11 = getelementptr inbounds [3 x float], ptr %10, i64 0
  %12 = getelementptr inbounds [3 x float], ptr %11, i64 0, i64 0
  store float 0.000000e+00, ptr %12, align 4, !tbaa !50
  %13 = load ptr, ptr %2, align 8, !tbaa !48
  %14 = getelementptr inbounds [3 x float], ptr %13, i64 1
  %15 = getelementptr inbounds [3 x float], ptr %14, i64 0, i64 2
  store float 0.000000e+00, ptr %15, align 4, !tbaa !50
  %16 = load ptr, ptr %2, align 8, !tbaa !48
  %17 = getelementptr inbounds [3 x float], ptr %16, i64 1
  %18 = getelementptr inbounds [3 x float], ptr %17, i64 0, i64 1
  store float 0.000000e+00, ptr %18, align 4, !tbaa !50
  %19 = load ptr, ptr %2, align 8, !tbaa !48
  %20 = getelementptr inbounds [3 x float], ptr %19, i64 1
  %21 = getelementptr inbounds [3 x float], ptr %20, i64 0, i64 0
  store float 0.000000e+00, ptr %21, align 4, !tbaa !50
  %22 = load ptr, ptr %2, align 8, !tbaa !48
  %23 = getelementptr inbounds [3 x float], ptr %22, i64 2
  %24 = getelementptr inbounds [3 x float], ptr %23, i64 0, i64 2
  store float 0.000000e+00, ptr %24, align 4, !tbaa !50
  %25 = load ptr, ptr %2, align 8, !tbaa !48
  %26 = getelementptr inbounds [3 x float], ptr %25, i64 2
  %27 = getelementptr inbounds [3 x float], ptr %26, i64 0, i64 1
  store float 0.000000e+00, ptr %27, align 4, !tbaa !50
  %28 = load ptr, ptr %2, align 8, !tbaa !48
  %29 = getelementptr inbounds [3 x float], ptr %28, i64 2
  %30 = getelementptr inbounds [3 x float], ptr %29, i64 0, i64 0
  store float 0.000000e+00, ptr %30, align 4, !tbaa !50
  call void @llvm.lifetime.end.p0(i64 4, ptr %3) #5
  ret void
}

; Function Attrs: mustprogress uwtable
define void @_Z21setBoxDeformationRatePA3_KfS1_PA3_f(ptr noundef %0, ptr noundef %1, ptr noundef %2) #3 {
  %4 = alloca ptr, align 8
  %5 = alloca ptr, align 8
  %6 = alloca ptr, align 8
  %7 = alloca i32, align 4
  %8 = alloca i32, align 4
  %9 = alloca i32, align 4
  store ptr %0, ptr %4, align 8, !tbaa !48
  store ptr %1, ptr %5, align 8, !tbaa !48
  store ptr %2, ptr %6, align 8, !tbaa !48
  %10 = load ptr, ptr %6, align 8, !tbaa !48
  call void @_ZL9clear_matPA3_f(ptr noundef %10)
  call void @llvm.lifetime.start.p0(i64 4, ptr %7) #5
  store i32 0, ptr %7, align 4, !tbaa !36
  br label %11

11:                                               ; preds = %61, %3
  %12 = load i32, ptr %7, align 4, !tbaa !36
  %13 = icmp slt i32 %12, 3
  br i1 %13, label %15, label %14

14:                                               ; preds = %11
  store i32 2, ptr %8, align 4
  call void @llvm.lifetime.end.p0(i64 4, ptr %7) #5
  br label %64

15:                                               ; preds = %11
  call void @llvm.lifetime.start.p0(i64 4, ptr %9) #5
  store i32 0, ptr %9, align 4, !tbaa !36
  br label %16

16:                                               ; preds = %57, %15
  %17 = load i32, ptr %9, align 4, !tbaa !36
  %18 = load i32, ptr %7, align 4, !tbaa !36
  %19 = icmp sle i32 %17, %18
  br i1 %19, label %21, label %20

20:                                               ; preds = %16
  store i32 5, ptr %8, align 4
  call void @llvm.lifetime.end.p0(i64 4, ptr %9) #5
  br label %60

21:                                               ; preds = %16
  %22 = load ptr, ptr %5, align 8, !tbaa !48
  %23 = load i32, ptr %7, align 4, !tbaa !36
  %24 = sext i32 %23 to i64
  %25 = getelementptr inbounds [3 x float], ptr %22, i64 %24
  %26 = load i32, ptr %7, align 4, !tbaa !36
  %27 = sext i32 %26 to i64
  %28 = getelementptr inbounds [3 x float], ptr %25, i64 0, i64 %27
  %29 = load float, ptr %28, align 4, !tbaa !50
  %30 = fcmp ogt float %29, 0.000000e+00
  br i1 %30, label %31, label %56

31:                                               ; preds = %21
  %32 = load ptr, ptr %4, align 8, !tbaa !48
  %33 = load i32, ptr %7, align 4, !tbaa !36
  %34 = sext i32 %33 to i64
  %35 = getelementptr inbounds [3 x float], ptr %32, i64 %34
  %36 = load i32, ptr %9, align 4, !tbaa !36
  %37 = sext i32 %36 to i64
  %38 = getelementptr inbounds [3 x float], ptr %35, i64 0, i64 %37
  %39 = load float, ptr %38, align 4, !tbaa !50
  %40 = load ptr, ptr %5, align 8, !tbaa !48
  %41 = load i32, ptr %7, align 4, !tbaa !36
  %42 = sext i32 %41 to i64
  %43 = getelementptr inbounds [3 x float], ptr %40, i64 %42
  %44 = load i32, ptr %7, align 4, !tbaa !36
  %45 = sext i32 %44 to i64
  %46 = getelementptr inbounds [3 x float], ptr %43, i64 0, i64 %45
  %47 = load float, ptr %46, align 4, !tbaa !50
  %48 = fdiv float %39, %47
  %49 = load ptr, ptr %6, align 8, !tbaa !48
  %50 = load i32, ptr %7, align 4, !tbaa !36
  %51 = sext i32 %50 to i64
  %52 = getelementptr inbounds [3 x float], ptr %49, i64 %51
  %53 = load i32, ptr %9, align 4, !tbaa !36
  %54 = sext i32 %53 to i64
  %55 = getelementptr inbounds [3 x float], ptr %52, i64 0, i64 %54
  store float %48, ptr %55, align 4, !tbaa !50
  br label %56

56:                                               ; preds = %31, %21
  br label %57

57:                                               ; preds = %56
  %58 = load i32, ptr %9, align 4, !tbaa !36
  %59 = add nsw i32 %58, 1
  store i32 %59, ptr %9, align 4, !tbaa !36
  br label %16, !llvm.loop !265

60:                                               ; preds = %20
  br label %61

61:                                               ; preds = %60
  %62 = load i32, ptr %7, align 4, !tbaa !36
  %63 = add nsw i32 %62, 1
  store i32 %63, ptr %7, align 4, !tbaa !36
  br label %11, !llvm.loop !266

64:                                               ; preds = %14
  ret void
}