; Function Attrs: mustprogress nofree norecurse nosync nounwind memory(argmem: readwrite) uwtable
define void @_Z21setBoxDeformationRatePA3_KfS1_PA3_f(ptr noundef readonly captures(none) %0, ptr noundef readonly captures(none) %1, ptr noundef writeonly captures(none) initializes((0, 36)) %2) local_unnamed_addr #18 {
  tail call void @llvm.memset.p0.i64(ptr noundef nonnull align 4 dereferenceable(36) %2, i8 0, i64 36, i1 false)
  br label %.preheader

.preheader:                                       ; preds = %3, %.split.us
  %indvars.iv27 = phi i64 [ 0, %3 ], [ %indvars.iv.next28, %.split.us ]
  %indvars.iv25 = phi i64 [ 1, %3 ], [ %indvars.iv.next26, %.split.us ]
  %4 = getelementptr inbounds nuw [3 x float], ptr %1, i64 %indvars.iv27, i64 %indvars.iv27
  %5 = load float, ptr %4, align 4, !tbaa !21
  %6 = fcmp ogt float %5, 0.000000e+00
  br i1 %6, label %.preheader.split, label %.split.us

7:                                                ; preds = %.split.us
  ret void

.split.us:                                        ; preds = %15, %.preheader
  %indvars.iv.next28 = add nuw nsw i64 %indvars.iv27, 1
  %indvars.iv.next26 = add nuw nsw i64 %indvars.iv25, 1
  %exitcond32.not = icmp eq i64 %indvars.iv.next28, 3
  br i1 %exitcond32.not, label %7, label %.preheader, !llvm.loop !151

.preheader.splitthread-pre-split:                 ; preds = %15
  %.pr = load float, ptr %4, align 4, !tbaa !21
  br label %.preheader.split

.preheader.split:                                 ; preds = %.preheader, %.preheader.splitthread-pre-split
  %8 = phi float [ %.pr, %.preheader.splitthread-pre-split ], [ %5, %.preheader ]
  %indvars.iv = phi i64 [ %indvars.iv.next, %.preheader.splitthread-pre-split ], [ 0, %.preheader ]
  %9 = fcmp ogt float %8, 0.000000e+00
  br i1 %9, label %10, label %15

10:                                               ; preds = %.preheader.split
  %11 = getelementptr inbounds nuw [3 x float], ptr %0, i64 %indvars.iv27, i64 %indvars.iv
  %12 = load float, ptr %11, align 4, !tbaa !21
  %13 = fdiv float %12, %8
  %14 = getelementptr inbounds nuw [3 x float], ptr %2, i64 %indvars.iv27, i64 %indvars.iv
  store float %13, ptr %14, align 4, !tbaa !21
  br label %15

15:                                               ; preds = %.preheader.split, %10
  %indvars.iv.next = add nuw nsw i64 %indvars.iv, 1
  %exitcond.not = icmp eq i64 %indvars.iv.next, %indvars.iv25
  br i1 %exitcond.not, label %.split.us, label %.preheader.splitthread-pre-split, !llvm.loop !152
}